target datalayout = "e-m:e-p270:32:32-p271:32:32-p272:64:64-i64:64-i128:128-f80:128-n8:16:32:64-S128"
target triple = "x86_64-pc-linux-gnu"

%"struct.duckdb::timestamp_t" = type { i64 }
%"struct.duckdb::Int96" = type { [3 x i32] }
%"struct.duckdb::dtime_t" = type { i64 }
%"struct.duckdb::date_t" = type { i32 }

; Function Attrs: mustprogress nounwind uwtable
define linkonce_odr void @_ZN6duckdb5StoreImEEvRKT_Ph(ptr noundef nonnull align 8 dereferenceable(8) %0, ptr noundef %1) #2 comdat {
  %3 = alloca ptr, align 8
  %4 = alloca ptr, align 8
  store ptr %0, ptr %3, align 8, !tbaa !17
  store ptr %1, ptr %4, align 8, !tbaa !19
  %5 = load ptr, ptr %4, align 8, !tbaa !19
  %6 = load ptr, ptr %3, align 8, !tbaa !17
  call void @llvm.memcpy.p0.p0.i64(ptr align 1 %5, ptr align 1 %6, i64 8, i1 false)
  ret void
}

; Function Attrs: mustprogress nounwind uwtable
define linkonce_odr noundef ptr @_ZN6duckdb13data_ptr_castIjEEPhPT_(ptr noundef %0) #2 comdat {
  %2 = alloca ptr, align 8
  store ptr %0, ptr %2, align 8, !tbaa !21
  %3 = load ptr, ptr %2, align 8, !tbaa !21
  ret ptr %3
}

; Function Attrs: mustprogress uwtable
define { i64, i32 } @_ZN6duckdb26TimestampToImpalaTimestampERNS_11timestamp_tE(ptr noundef nonnull align 8 dereferenceable(8) %0) #0 {
  %2 = alloca %"struct.duckdb::Int96", align 4
  %3 = alloca ptr, align 8
  %4 = alloca i32, align 4
  %5 = alloca i32, align 4
  %6 = alloca i32, align 4
  %7 = alloca i32, align 4
  %8 = alloca %"struct.duckdb::dtime_t", align 8
  %9 = alloca %"struct.duckdb::timestamp_t", align 8
  %10 = alloca i64, align 8
  %11 = alloca i64, align 8
  %12 = alloca %"struct.duckdb::date_t", align 4
  %13 = alloca %"struct.duckdb::timestamp_t", align 8
  %14 = alloca i64, align 8
  %15 = alloca { i64, i32 }, align 8
  store ptr %0, ptr %3, align 8, !tbaa !12
  call void @llvm.lifetime.start.p0(i64 4, ptr %4) #7
  call void @llvm.lifetime.start.p0(i64 4, ptr %5) #7
  call void @llvm.lifetime.start.p0(i64 4, ptr %6) #7
  call void @llvm.lifetime.start.p0(i64 4, ptr %7) #7
  %16 = load ptr, ptr %3, align 8, !tbaa !12
  call void @llvm.memcpy.p0.p0.i64(ptr align 8 %9, ptr align 8 %16, i64 8, i1 false), !tbaa.struct !14
  %17 = getelementptr inbounds nuw %"struct.duckdb::timestamp_t", ptr %9, i32 0, i32 0
  %18 = load i64, ptr %17, align 8
  %19 = call i64 @_ZN6duckdb9Timestamp7GetTimeENS_11timestamp_tE(i64 %18)
  %20 = getelementptr inbounds nuw %"struct.duckdb::dtime_t", ptr %8, i32 0, i32 0
  store i64 %19, ptr %20, align 8
  %21 = getelementptr inbounds nuw %"struct.duckdb::dtime_t", ptr %8, i32 0, i32 0
  %22 = load i64, ptr %21, align 8
  call void @_ZN6duckdb4Time7ConvertENS_7dtime_tERiS2_S2_S2_(i64 %22, ptr noundef nonnull align 4 dereferenceable(4) %4, ptr noundef nonnull align 4 dereferenceable(4) %5, ptr noundef nonnull align 4 dereferenceable(4) %6, ptr noundef nonnull align 4 dereferenceable(4) %7)
  call void @llvm.lifetime.start.p0(i64 8, ptr %10) #7
  %23 = load i32, ptr %4, align 4, !tbaa !15
  %24 = mul nsw i32 %23, 60
  %25 = mul nsw i32 %24, 60
  %26 = mul nsw i32 %25, 1000
  %27 = load i32, ptr %5, align 4, !tbaa !15
  %28 = mul nsw i32 %27, 60
  %29 = mul nsw i32 %28, 1000
  %30 = add nsw i32 %26, %29
  %31 = load i32, ptr %6, align 4, !tbaa !15
  %32 = mul nsw i32 %31, 1000
  %33 = add nsw i32 %30, %32
  %34 = load i32, ptr %7, align 4, !tbaa !15
  %35 = add nsw i32 %33, %34
  %36 = sext i32 %35 to i64
  store i64 %36, ptr %10, align 8, !tbaa !11
  call void @llvm.lifetime.start.p0(i64 8, ptr %11) #7
  %37 = load ptr, ptr %3, align 8, !tbaa !12
  call void @llvm.memcpy.p0.p0.i64(ptr align 8 %13, ptr align 8 %37, i64 8, i1 false), !tbaa.struct !14
  %38 = getelementptr inbounds nuw %"struct.duckdb::timestamp_t", ptr %13, i32 0, i32 0
  %39 = load i64, ptr %38, align 8
  %40 = call i32 @_ZN6duckdb9Timestamp7GetDateENS_11timestamp_tE(i64 %39)
  %41 = getelementptr inbounds nuw %"struct.duckdb::date_t", ptr %12, i32 0, i32 0
  store i32 %40, ptr %41, align 4
  %42 = getelementptr inbounds nuw %"struct.duckdb::date_t", ptr %12, i32 0, i32 0
  %43 = load i32, ptr %42, align 4
  %44 = call noundef i64 @_ZN6duckdb4Date5EpochENS_6date_tE(i32 %43)
  %45 = sdiv i64 %44, 86400
  store i64 %45, ptr %11, align 8, !tbaa !11
  call void @llvm.lifetime.start.p0(i64 8, ptr %14) #7
  %46 = load i64, ptr %10, align 8, !tbaa !11
  %47 = mul i64 %46, 1000000
  store i64 %47, ptr %14, align 8, !tbaa !11
  %48 = getelementptr inbounds nuw %"struct.duckdb::Int96", ptr %2, i32 0, i32 0
  %49 = getelementptr inbounds [3 x i32], ptr %48, i64 0, i64 0
  %50 = call noundef ptr @_ZN6duckdb13data_ptr_castIjEEPhPT_(ptr noundef %49)
  call void @_ZN6duckdb5StoreImEEvRKT_Ph(ptr noundef nonnull align 8 dereferenceable(8) %14, ptr noundef %50)
  call void @llvm.lifetime.end.p0(i64 8, ptr %14) #7
  %51 = load i64, ptr %11, align 8, !tbaa !11
  %52 = add nsw i64 %51, 2440588
  %53 = trunc i64 %52 to i32
  %54 = getelementptr inbounds nuw %"struct.duckdb::Int96", ptr %2, i32 0, i32 0
  %55 = getelementptr inbounds [3 x i32], ptr %54, i64 0, i64 2
  store i32 %53, ptr %55, align 4, !tbaa !15
  call void @llvm.lifetime.end.p0(i64 8, ptr %11) #7
  call void @llvm.lifetime.end.p0(i64 8, ptr %10) #7
  call void @llvm.lifetime.end.p0(i64 4, ptr %7) #7
  call void @llvm.lifetime.end.p0(i64 4, ptr %6) #7
  call void @llvm.lifetime.end.p0(i64 4, ptr %5) #7
  call void @llvm.lifetime.end.p0(i64 4, ptr %4) #7
  %56 = getelementptr inbounds nuw %"struct.duckdb::Int96", ptr %2, i32 0, i32 0
  call void @llvm.memcpy.p0.p0.i64(ptr align 8 %15, ptr align 4 %56, i64 12, i1 false)
  %57 = load { i64, i32 }, ptr %15, align 8
  ret { i64, i32 } %57
}