; Function Attrs: mustprogress uwtable
define { i64, i32 } @_ZN6duckdb26TimestampToImpalaTimestampERNS_11timestamp_tE(ptr noundef nonnull readonly align 8 captures(none) dereferenceable(8) %0) local_unnamed_addr #1 {
  %2 = alloca i32, align 4
  %3 = alloca i32, align 4
  %4 = alloca i32, align 4
  %5 = alloca i32, align 4
  call void @llvm.lifetime.start.p0(i64 4, ptr nonnull %2) #4
  call void @llvm.lifetime.start.p0(i64 4, ptr nonnull %3) #4
  call void @llvm.lifetime.start.p0(i64 4, ptr nonnull %4) #4
  call void @llvm.lifetime.start.p0(i64 4, ptr nonnull %5) #4
  %.sroa.04.0.copyload = load i64, ptr %0, align 8, !tbaa !7
  %6 = tail call i64 @_ZN6duckdb9Timestamp7GetTimeENS_11timestamp_tE(i64 %.sroa.04.0.copyload)
  call void @_ZN6duckdb4Time7ConvertENS_7dtime_tERiS2_S2_S2_(i64 %6, ptr noundef nonnull align 4 dereferenceable(4) %2, ptr noundef nonnull align 4 dereferenceable(4) %3, ptr noundef nonnull align 4 dereferenceable(4) %4, ptr noundef nonnull align 4 dereferenceable(4) %5)
  %7 = load i32, ptr %2, align 4, !tbaa !3
  %8 = mul nsw i32 %7, 3600000
  %9 = load i32, ptr %3, align 4, !tbaa !3
  %10 = mul nsw i32 %9, 60000
  %11 = add nsw i32 %10, %8
  %12 = load i32, ptr %4, align 4, !tbaa !3
  %13 = mul nsw i32 %12, 1000
  %14 = add nsw i32 %11, %13
  %15 = load i32, ptr %5, align 4, !tbaa !3
  %16 = add nsw i32 %14, %15
  %17 = sext i32 %16 to i64
  %.sroa.01.0.copyload = load i64, ptr %0, align 8, !tbaa !7
  %18 = call i32 @_ZN6duckdb9Timestamp7GetDateENS_11timestamp_tE(i64 %.sroa.01.0.copyload)
  %19 = call noundef i64 @_ZN6duckdb4Date5EpochENS_6date_tE(i32 %18)
  %20 = sdiv i64 %19, 86400
  %21 = mul nsw i64 %17, 1000000
  %22 = trunc i64 %20 to i32
  %23 = add i32 %22, 2440588
  call void @llvm.lifetime.end.p0(i64 4, ptr nonnull %5) #4
  call void @llvm.lifetime.end.p0(i64 4, ptr nonnull %4) #4
  call void @llvm.lifetime.end.p0(i64 4, ptr nonnull %3) #4
  call void @llvm.lifetime.end.p0(i64 4, ptr nonnull %2) #4
  %.fca.0.insert = insertvalue { i64, i32 } poison, i64 %21, 0
  %.fca.1.insert = insertvalue { i64, i32 } %.fca.0.insert, i32 %23, 1
  ret { i64, i32 } %.fca.1.insert
}